; Function Attrs: mustprogress uwtable
define noundef i32 @_ZN7rocksdb14ThreadPoolImpl20GetBackgroundThreadsEv(ptr noundef nonnull readonly align 8 captures(none) dereferenceable(16) %0) unnamed_addr #3 align 2 personality ptr @__gxx_personality_v0 {
  %2 = getelementptr inbounds nuw i8, ptr %0, i64 8
  %3 = load ptr, ptr %2, align 8, !tbaa !155
  %4 = getelementptr inbounds nuw i8, ptr %3, i64 128
  %5 = tail call noundef i32 @pthread_mutex_lock(ptr noundef nonnull align 8 dereferenceable(40) %4) #26
  %.not.i.i.i.i = icmp eq i32 %5, 0
  br i1 %.not.i.i.i.i, label %_ZN7rocksdb14ThreadPoolImpl4Impl20GetBackgroundThreadsEv.exit, label %6

6:                                                ; preds = %1
  tail call void @_ZSt20__throw_system_errori(i32 noundef %5) #29
  unreachable

_ZN7rocksdb14ThreadPoolImpl4Impl20GetBackgroundThreadsEv.exit: ; preds = %1
  %7 = getelementptr inbounds nuw i8, ptr %3, i64 24
  %8 = load i32, ptr %7, align 8, !tbaa !43
  %9 = tail call noundef i32 @pthread_mutex_unlock(ptr noundef nonnull align 8 dereferenceable(40) %4) #26
  ret i32 %8
}